target datalayout = "e-m:e-p270:32:32-p271:32:32-p272:64:64-i64:64-i128:128-f80:128-n8:16:32:64-S128"
target triple = "x86_64-pc-linux-gnu"

%struct.vorbis_context_s = type { ptr, %struct.GetBitContext, %struct.VorbisDSPContext, ptr, [2 x ptr], [2 x ptr], i8, i32, i8, i32, i32, i32, i32, [2 x i32], [2 x ptr], i16, ptr, i8, ptr, i8, ptr, i8, ptr, i8, ptr, i8, i8, ptr, ptr }
%struct.GetBitContext = type { ptr, ptr, i32, i32, i32 }
%struct.VorbisDSPContext = type { ptr }

@.str.29 = private unnamed_addr constant [45 x i8] c"Vorbis time domain transform data nonzero. \0A\00", align 1

; Function Attrs: inlinehint nounwind willreturn memory(none) uwtable
define internal i32 @zero_extend(i32 noundef %0, i32 noundef %1) #5 {
  %3 = alloca i32, align 4
  %4 = alloca i32, align 4
  store i32 %0, ptr %3, align 4, !tbaa !34
  store i32 %1, ptr %4, align 4, !tbaa !34
  %5 = load i32, ptr %3, align 4, !tbaa !34
  %6 = load i32, ptr %4, align 4, !tbaa !34
  %7 = zext i32 %6 to i64
  %8 = sub i64 32, %7
  %9 = trunc i64 %8 to i32
  %10 = shl i32 %5, %9
  %11 = load i32, ptr %4, align 4, !tbaa !34
  %12 = zext i32 %11 to i64
  %13 = sub i64 32, %12
  %14 = trunc i64 %13 to i32
  %15 = lshr i32 %10, %14
  ret i32 %15
}

; Function Attrs: inlinehint nounwind uwtable
define internal i32 @get_bits(ptr noundef %0, i32 noundef %1) #4 {
  %3 = alloca ptr, align 8
  %4 = alloca i32, align 4
  %5 = alloca i32, align 4
  %6 = alloca i32, align 4
  %7 = alloca i32, align 4
  %8 = alloca i32, align 4
  store ptr %0, ptr %3, align 8, !tbaa !35
  store i32 %1, ptr %4, align 4, !tbaa !34
  call void @llvm.lifetime.start.p0(i64 4, ptr %5) #13
  call void @llvm.lifetime.start.p0(i64 4, ptr %6) #13
  %9 = load ptr, ptr %3, align 8, !tbaa !35
  %10 = getelementptr inbounds nuw %struct.GetBitContext, ptr %9, i32 0, i32 2
  %11 = load i32, ptr %10, align 8, !tbaa !89
  store i32 %11, ptr %6, align 4, !tbaa !34
  call void @llvm.lifetime.start.p0(i64 4, ptr %7) #13
  call void @llvm.lifetime.start.p0(i64 4, ptr %8) #13
  %12 = load ptr, ptr %3, align 8, !tbaa !35
  %13 = getelementptr inbounds nuw %struct.GetBitContext, ptr %12, i32 0, i32 4
  %14 = load i32, ptr %13, align 8, !tbaa !87
  store i32 %14, ptr %8, align 4, !tbaa !34
  %15 = load ptr, ptr %3, align 8, !tbaa !35
  %16 = getelementptr inbounds nuw %struct.GetBitContext, ptr %15, i32 0, i32 0
  %17 = load ptr, ptr %16, align 8, !tbaa !85
  %18 = load i32, ptr %6, align 4, !tbaa !34
  %19 = lshr i32 %18, 3
  %20 = zext i32 %19 to i64
  %21 = getelementptr inbounds nuw i8, ptr %17, i64 %20
  %22 = load i32, ptr %21, align 1, !tbaa !63
  %23 = load i32, ptr %6, align 4, !tbaa !34
  %24 = and i32 %23, 7
  %25 = lshr i32 %22, %24
  store i32 %25, ptr %7, align 4, !tbaa !34
  %26 = load i32, ptr %7, align 4, !tbaa !34
  %27 = load i32, ptr %4, align 4, !tbaa !34
  %28 = call i32 @zero_extend(i32 noundef %26, i32 noundef %27) #14
  store i32 %28, ptr %5, align 4, !tbaa !34
  %29 = load i32, ptr %8, align 4, !tbaa !34
  %30 = load i32, ptr %6, align 4, !tbaa !34
  %31 = load i32, ptr %4, align 4, !tbaa !34
  %32 = add i32 %30, %31
  %33 = icmp ugt i32 %29, %32
  br i1 %33, label %34, label %38

34:                                               ; preds = %2
  %35 = load i32, ptr %6, align 4, !tbaa !34
  %36 = load i32, ptr %4, align 4, !tbaa !34
  %37 = add i32 %35, %36
  br label %40

38:                                               ; preds = %2
  %39 = load i32, ptr %8, align 4, !tbaa !34
  br label %40

40:                                               ; preds = %38, %34
  %41 = phi i32 [ %37, %34 ], [ %39, %38 ]
  store i32 %41, ptr %6, align 4, !tbaa !34
  %42 = load i32, ptr %6, align 4, !tbaa !34
  %43 = load ptr, ptr %3, align 8, !tbaa !35
  %44 = getelementptr inbounds nuw %struct.GetBitContext, ptr %43, i32 0, i32 2
  store i32 %42, ptr %44, align 8, !tbaa !89
  %45 = load i32, ptr %5, align 4, !tbaa !34
  call void @llvm.lifetime.end.p0(i64 4, ptr %8) #13
  call void @llvm.lifetime.end.p0(i64 4, ptr %7) #13
  call void @llvm.lifetime.end.p0(i64 4, ptr %6) #13
  call void @llvm.lifetime.end.p0(i64 4, ptr %5) #13
  ret i32 %45
}

; Function Attrs: nounwind uwtable
define internal i32 @vorbis_parse_setup_hdr_tdtransforms(ptr noundef %0) #1 {
  %2 = alloca i32, align 4
  %3 = alloca ptr, align 8
  %4 = alloca ptr, align 8
  %5 = alloca i32, align 4
  %6 = alloca i32, align 4
  %7 = alloca i32, align 4
  %8 = alloca i32, align 4
  store ptr %0, ptr %3, align 8, !tbaa !29
  call void @llvm.lifetime.start.p0(i64 8, ptr %4) #13
  %9 = load ptr, ptr %3, align 8, !tbaa !29
  %10 = getelementptr inbounds nuw %struct.vorbis_context_s, ptr %9, i32 0, i32 1
  store ptr %10, ptr %4, align 8, !tbaa !35
  call void @llvm.lifetime.start.p0(i64 4, ptr %5) #13
  call void @llvm.lifetime.start.p0(i64 4, ptr %6) #13
  %11 = load ptr, ptr %4, align 8, !tbaa !35
  %12 = call i32 @get_bits(ptr noundef %11, i32 noundef 6)
  %13 = add i32 %12, 1
  store i32 %13, ptr %6, align 4, !tbaa !34
  store i32 0, ptr %5, align 4, !tbaa !34
  br label %14

14:                                               ; preds = %34, %1
  %15 = load i32, ptr %5, align 4, !tbaa !34
  %16 = load i32, ptr %6, align 4, !tbaa !34
  %17 = icmp ult i32 %15, %16
  br i1 %17, label %18, label %37

18:                                               ; preds = %14
  call void @llvm.lifetime.start.p0(i64 4, ptr %7) #13
  %19 = load ptr, ptr %4, align 8, !tbaa !35
  %20 = call i32 @get_bits(ptr noundef %19, i32 noundef 16)
  store i32 %20, ptr %7, align 4, !tbaa !34
  br label %21

21:                                               ; preds = %18
  br label %22

22:                                               ; preds = %21
  br label %23

23:                                               ; preds = %22
  %24 = load i32, ptr %7, align 4, !tbaa !34
  %25 = icmp ne i32 %24, 0
  br i1 %25, label %26, label %30

26:                                               ; preds = %23
  %27 = load ptr, ptr %3, align 8, !tbaa !29
  %28 = getelementptr inbounds nuw %struct.vorbis_context_s, ptr %27, i32 0, i32 0
  %29 = load ptr, ptr %28, align 8, !tbaa !37
  call void (ptr, i32, ptr, ...) @av_log(ptr noundef %29, i32 noundef 16, ptr noundef @.str.29)
  store i32 -1094995529, ptr %2, align 4
  store i32 1, ptr %8, align 4
  br label %31

30:                                               ; preds = %23
  store i32 0, ptr %8, align 4
  br label %31

31:                                               ; preds = %30, %26
  call void @llvm.lifetime.end.p0(i64 4, ptr %7) #13
  %32 = load i32, ptr %8, align 4
  switch i32 %32, label %38 [
    i32 0, label %33
  ]

33:                                               ; preds = %31
  br label %34

34:                                               ; preds = %33
  %35 = load i32, ptr %5, align 4, !tbaa !34
  %36 = add i32 %35, 1
  store i32 %36, ptr %5, align 4, !tbaa !34
  br label %14, !llvm.loop !132

37:                                               ; preds = %14
  store i32 0, ptr %2, align 4
  store i32 1, ptr %8, align 4
  br label %38

38:                                               ; preds = %37, %31
  call void @llvm.lifetime.end.p0(i64 4, ptr %6) #13
  call void @llvm.lifetime.end.p0(i64 4, ptr %5) #13
  call void @llvm.lifetime.end.p0(i64 8, ptr %4) #13
  %39 = load i32, ptr %2, align 4
  ret i32 %39
}