; Function Attrs: nounwind uwtable
define internal fastcc range(i32 -1094995529, 1) i32 @vorbis_parse_setup_hdr_tdtransforms(ptr noundef captures(none) %0) unnamed_addr #1 {
  %2 = getelementptr inbounds nuw i8, ptr %0, i64 8
  %3 = getelementptr inbounds nuw i8, ptr %0, i64 24
  %4 = load i32, ptr %3, align 8, !tbaa !49
  %5 = getelementptr inbounds nuw i8, ptr %0, i64 32
  %6 = load i32, ptr %5, align 8, !tbaa !47
  %7 = load ptr, ptr %2, align 8, !tbaa !45
  %8 = lshr i32 %4, 3
  %9 = zext nneg i32 %8 to i64
  %10 = getelementptr inbounds nuw i8, ptr %7, i64 %9
  %11 = load i32, ptr %10, align 1, !tbaa !50
  %12 = and i32 %4, 7
  %13 = lshr i32 %11, %12
  %14 = and i32 %13, 63
  %15 = add i32 %4, 6
  %16 = tail call i32 @llvm.umin.i32(i32 %6, i32 %15)
  store i32 %16, ptr %3, align 8, !tbaa !49
  br label %.critedge

17:                                               ; preds = %.critedge
  %18 = add nuw nsw i32 %.01012, 1
  %exitcond.not = icmp eq i32 %.01012, %14
  br i1 %exitcond.not, label %.loopexit, label %.critedge, !llvm.loop !179

.critedge:                                        ; preds = %1, %17
  %.01012 = phi i32 [ 0, %1 ], [ %18, %17 ]
  %19 = phi i32 [ %16, %1 ], [ %26, %17 ]
  %20 = lshr i32 %19, 3
  %21 = zext nneg i32 %20 to i64
  %22 = getelementptr inbounds nuw i8, ptr %7, i64 %21
  %23 = load i32, ptr %22, align 1, !tbaa !50
  %24 = and i32 %19, 7
  %25 = add i32 %19, 16
  %26 = tail call i32 @llvm.umin.i32(i32 %6, i32 %25)
  store i32 %26, ptr %3, align 8, !tbaa !49
  %27 = shl nuw nsw i32 65535, %24
  %28 = and i32 %27, %23
  %.not = icmp eq i32 %28, 0
  br i1 %.not, label %17, label %29

29:                                               ; preds = %.critedge
  %30 = load ptr, ptr %0, align 8, !tbaa !29
  tail call void (ptr, i32, ptr, ...) @av_log(ptr noundef %30, i32 noundef 16, ptr noundef nonnull @.str.29) #11
  br label %.loopexit

.loopexit:                                        ; preds = %17, %29
  %.2 = phi i32 [ -1094995529, %29 ], [ 0, %17 ]
  ret i32 %.2
}